target datalayout = "e-m:e-p270:32:32-p271:32:32-p272:64:64-i64:64-i128:128-f80:128-n8:16:32:64-S128"
target triple = "x86_64-pc-linux-gnu"

%struct.opcode_metadata = type { i8, i8, i16 }
%struct._object = type { %union.anon, ptr }
%union.anon = type { i64 }
%struct.instruction_sequence = type { %struct._object, ptr, i32, i32, i32, ptr, i32, ptr }
%struct._PyInstruction = type { i32, i32, %struct._Py_SourceLocation, %struct._PyExceptHandlerInfo, i32, i32 }
%struct._Py_SourceLocation = type { i32, i32, i32, i32 }
%struct._PyExceptHandlerInfo = type { i32, i32, i32 }

@_PyOpcode_opcode_metadata = external constant [266 x %struct.opcode_metadata], align 16

; Function Attrs: nounwind uwtable
define hidden i32 @_PyInstructionSequence_ApplyLabelMap(ptr noundef %0) #0 {
  %2 = alloca i32, align 4
  %3 = alloca ptr, align 8
  %4 = alloca i32, align 4
  %5 = alloca ptr, align 8
  %6 = alloca ptr, align 8
  store ptr %0, ptr %3, align 8, !tbaa !4
  %7 = load ptr, ptr %3, align 8, !tbaa !4
  %8 = getelementptr inbounds nuw %struct.instruction_sequence, ptr %7, i32 0, i32 5
  %9 = load ptr, ptr %8, align 8, !tbaa !20
  %10 = icmp eq ptr %9, null
  br i1 %10, label %11, label %12

11:                                               ; preds = %1
  store i32 0, ptr %2, align 4
  br label %95

12:                                               ; preds = %1
  call void @llvm.lifetime.start.p0(i64 4, ptr %4) #6
  store i32 0, ptr %4, align 4, !tbaa !18
  br label %13

13:                                               ; preds = %84, %12
  %14 = load i32, ptr %4, align 4, !tbaa !18
  %15 = load ptr, ptr %3, align 8, !tbaa !4
  %16 = getelementptr inbounds nuw %struct.instruction_sequence, ptr %15, i32 0, i32 3
  %17 = load i32, ptr %16, align 4, !tbaa !23
  %18 = icmp slt i32 %14, %17
  br i1 %18, label %20, label %19

19:                                               ; preds = %13
  call void @llvm.lifetime.end.p0(i64 4, ptr %4) #6
  br label %87

20:                                               ; preds = %13
  call void @llvm.lifetime.start.p0(i64 8, ptr %5) #6
  %21 = load ptr, ptr %3, align 8, !tbaa !4
  %22 = getelementptr inbounds nuw %struct.instruction_sequence, ptr %21, i32 0, i32 1
  %23 = load ptr, ptr %22, align 8, !tbaa !24
  %24 = load i32, ptr %4, align 4, !tbaa !18
  %25 = sext i32 %24 to i64
  %26 = getelementptr %struct._PyInstruction, ptr %23, i64 %25
  store ptr %26, ptr %5, align 8, !tbaa !25
  %27 = load ptr, ptr %5, align 8, !tbaa !25
  %28 = getelementptr inbounds nuw %struct._PyInstruction, ptr %27, i32 0, i32 0
  %29 = load i32, ptr %28, align 4, !tbaa !26
  %30 = sext i32 %29 to i64
  %31 = getelementptr [266 x %struct.opcode_metadata], ptr @_PyOpcode_opcode_metadata, i64 0, i64 %30
  %32 = getelementptr inbounds nuw %struct.opcode_metadata, ptr %31, i32 0, i32 2
  %33 = load i16, ptr %32, align 2, !tbaa !30
  %34 = zext i16 %33 to i32
  %35 = and i32 %34, 8
  %36 = icmp ne i32 %35, 0
  br i1 %36, label %52, label %37

37:                                               ; preds = %20
  %38 = load ptr, ptr %5, align 8, !tbaa !25
  %39 = getelementptr inbounds nuw %struct._PyInstruction, ptr %38, i32 0, i32 0
  %40 = load i32, ptr %39, align 4, !tbaa !26
  %41 = icmp eq i32 %40, 263
  br i1 %41, label %52, label %42

42:                                               ; preds = %37
  %43 = load ptr, ptr %5, align 8, !tbaa !25
  %44 = getelementptr inbounds nuw %struct._PyInstruction, ptr %43, i32 0, i32 0
  %45 = load i32, ptr %44, align 4, !tbaa !26
  %46 = icmp eq i32 %45, 264
  br i1 %46, label %52, label %47

47:                                               ; preds = %42
  %48 = load ptr, ptr %5, align 8, !tbaa !25
  %49 = getelementptr inbounds nuw %struct._PyInstruction, ptr %48, i32 0, i32 0
  %50 = load i32, ptr %49, align 4, !tbaa !26
  %51 = icmp eq i32 %50, 262
  br i1 %51, label %52, label %64

52:                                               ; preds = %47, %42, %37, %20
  %53 = load ptr, ptr %3, align 8, !tbaa !4
  %54 = getelementptr inbounds nuw %struct.instruction_sequence, ptr %53, i32 0, i32 5
  %55 = load ptr, ptr %54, align 8, !tbaa !20
  %56 = load ptr, ptr %5, align 8, !tbaa !25
  %57 = getelementptr inbounds nuw %struct._PyInstruction, ptr %56, i32 0, i32 1
  %58 = load i32, ptr %57, align 4, !tbaa !33
  %59 = sext i32 %58 to i64
  %60 = getelementptr i32, ptr %55, i64 %59
  %61 = load i32, ptr %60, align 4, !tbaa !18
  %62 = load ptr, ptr %5, align 8, !tbaa !25
  %63 = getelementptr inbounds nuw %struct._PyInstruction, ptr %62, i32 0, i32 1
  store i32 %61, ptr %63, align 4, !tbaa !33
  br label %64

64:                                               ; preds = %52, %47
  call void @llvm.lifetime.start.p0(i64 8, ptr %6) #6
  %65 = load ptr, ptr %5, align 8, !tbaa !25
  %66 = getelementptr inbounds nuw %struct._PyInstruction, ptr %65, i32 0, i32 3
  store ptr %66, ptr %6, align 8, !tbaa !25
  %67 = load ptr, ptr %6, align 8, !tbaa !25
  %68 = getelementptr inbounds nuw %struct._PyExceptHandlerInfo, ptr %67, i32 0, i32 0
  %69 = load i32, ptr %68, align 4, !tbaa !34
  %70 = icmp sge i32 %69, 0
  br i1 %70, label %71, label %83

71:                                               ; preds = %64
  %72 = load ptr, ptr %3, align 8, !tbaa !4
  %73 = getelementptr inbounds nuw %struct.instruction_sequence, ptr %72, i32 0, i32 5
  %74 = load ptr, ptr %73, align 8, !tbaa !20
  %75 = load ptr, ptr %6, align 8, !tbaa !25
  %76 = getelementptr inbounds nuw %struct._PyExceptHandlerInfo, ptr %75, i32 0, i32 0
  %77 = load i32, ptr %76, align 4, !tbaa !34
  %78 = sext i32 %77 to i64
  %79 = getelementptr i32, ptr %74, i64 %78
  %80 = load i32, ptr %79, align 4, !tbaa !18
  %81 = load ptr, ptr %6, align 8, !tbaa !25
  %82 = getelementptr inbounds nuw %struct._PyExceptHandlerInfo, ptr %81, i32 0, i32 0
  store i32 %80, ptr %82, align 4, !tbaa !34
  br label %83

83:                                               ; preds = %71, %64
  call void @llvm.lifetime.end.p0(i64 8, ptr %6) #6
  call void @llvm.lifetime.end.p0(i64 8, ptr %5) #6
  br label %84

84:                                               ; preds = %83
  %85 = load i32, ptr %4, align 4, !tbaa !18
  %86 = add i32 %85, 1
  store i32 %86, ptr %4, align 4, !tbaa !18
  br label %13, !llvm.loop !35

87:                                               ; preds = %19
  %88 = load ptr, ptr %3, align 8, !tbaa !4
  %89 = getelementptr inbounds nuw %struct.instruction_sequence, ptr %88, i32 0, i32 5
  %90 = load ptr, ptr %89, align 8, !tbaa !20
  call void @PyMem_Free(ptr noundef %90)
  %91 = load ptr, ptr %3, align 8, !tbaa !4
  %92 = getelementptr inbounds nuw %struct.instruction_sequence, ptr %91, i32 0, i32 5
  store ptr null, ptr %92, align 8, !tbaa !20
  %93 = load ptr, ptr %3, align 8, !tbaa !4
  %94 = getelementptr inbounds nuw %struct.instruction_sequence, ptr %93, i32 0, i32 6
  store i32 0, ptr %94, align 8, !tbaa !19
  store i32 0, ptr %2, align 4
  br label %95

95:                                               ; preds = %87, %11
  %96 = load i32, ptr %2, align 4
  ret i32 %96
}