; Function Attrs: nounwind uwtable
define hidden noundef i32 @_PyInstructionSequence_ApplyLabelMap(ptr noundef captures(none) %0) local_unnamed_addr #1 {
  %2 = getelementptr inbounds nuw i8, ptr %0, i64 40
  %3 = load ptr, ptr %2, align 8, !tbaa !15
  %4 = icmp eq ptr %3, null
  br i1 %4, label %33, label %.preheader

.preheader:                                       ; preds = %1
  %5 = getelementptr inbounds nuw i8, ptr %0, i64 28
  %6 = load i32, ptr %5, align 4, !tbaa !16
  %7 = icmp sgt i32 %6, 0
  br i1 %7, label %.lr.ph, label %._crit_edge

.lr.ph:                                           ; preds = %.preheader
  %8 = getelementptr inbounds nuw i8, ptr %0, i64 16
  %9 = load ptr, ptr %8, align 8, !tbaa !20
  %wide.trip.count = zext nneg i32 %6 to i64
  br label %11

._crit_edge:                                      ; preds = %32, %.preheader
  tail call void @PyMem_Free(ptr noundef nonnull %3) #6
  store ptr null, ptr %2, align 8, !tbaa !15
  %10 = getelementptr inbounds nuw i8, ptr %0, i64 48
  store i32 0, ptr %10, align 8, !tbaa !14
  br label %33

11:                                               ; preds = %.lr.ph, %32
  %indvars.iv = phi i64 [ 0, %.lr.ph ], [ %indvars.iv.next, %32 ]
  %12 = getelementptr %struct._PyInstruction, ptr %9, i64 %indvars.iv
  %13 = load i32, ptr %12, align 4, !tbaa !21
  %14 = sext i32 %13 to i64
  %15 = getelementptr [266 x %struct.opcode_metadata], ptr @_PyOpcode_opcode_metadata, i64 0, i64 %14, i32 2
  %16 = load i16, ptr %15, align 2, !tbaa !25
  %.fr25 = freeze i16 %16
  %17 = and i16 %.fr25, 8
  %.not = icmp ne i16 %17, 0
  %.off = add i32 %13, -262
  %switch = icmp ult i32 %.off, 3
  %or.cond = or i1 %switch, %.not
  br i1 %or.cond, label %18, label %24

18:                                               ; preds = %11
  %19 = getelementptr inbounds nuw i8, ptr %12, i64 4
  %20 = load i32, ptr %19, align 4, !tbaa !28
  %21 = sext i32 %20 to i64
  %22 = getelementptr i32, ptr %3, i64 %21
  %23 = load i32, ptr %22, align 4, !tbaa !17
  store i32 %23, ptr %19, align 4, !tbaa !28
  br label %24

24:                                               ; preds = %11, %18
  %25 = getelementptr inbounds nuw i8, ptr %12, i64 24
  %26 = load i32, ptr %25, align 4, !tbaa !29
  %27 = icmp sgt i32 %26, -1
  br i1 %27, label %28, label %32

28:                                               ; preds = %24
  %29 = zext nneg i32 %26 to i64
  %30 = getelementptr i32, ptr %3, i64 %29
  %31 = load i32, ptr %30, align 4, !tbaa !17
  store i32 %31, ptr %25, align 4, !tbaa !29
  br label %32

32:                                               ; preds = %28, %24
  %indvars.iv.next = add nuw nsw i64 %indvars.iv, 1
  %exitcond.not = icmp eq i64 %indvars.iv.next, %wide.trip.count
  br i1 %exitcond.not, label %._crit_edge, label %11, !llvm.loop !30

33:                                               ; preds = %1, %._crit_edge
  ret i32 0
}